target datalayout = "e-m:e-p270:32:32-p271:32:32-p272:64:64-i64:64-i128:128-f80:128-n8:16:32:64-S128"
target triple = "x86_64-pc-linux-gnu"

%"class.testing::internal::linked_ptr_internal" = type { ptr }
%"class.testing::internal::ParamGenerator.29" = type { %"class.testing::internal::linked_ptr.30" }
%"class.testing::internal::linked_ptr.30" = type { ptr, %"class.testing::internal::linked_ptr_internal" }
%"class.testing::internal::ParamGenerator.31" = type { %"class.testing::internal::linked_ptr.32" }
%"class.testing::internal::linked_ptr.32" = type { ptr, %"class.testing::internal::linked_ptr_internal" }
%"class.testing::internal::ParamGenerator.51" = type { %"class.testing::internal::linked_ptr.52" }
%"class.testing::internal::linked_ptr.52" = type { ptr, %"class.testing::internal::linked_ptr_internal" }
%"class.testing::internal::CartesianProductGenerator3" = type { %"class.testing::internal::ParamGeneratorInterface.50", %"class.testing::internal::ParamGenerator.29", %"class.testing::internal::ParamGenerator.31", %"class.testing::internal::ParamGenerator.51" }
%"class.testing::internal::ParamGeneratorInterface.50" = type { ptr }
%"class.testing::internal::ParamIterator" = type { %"class.testing::internal::scoped_ptr.64" }
%"class.testing::internal::scoped_ptr.64" = type { ptr }
%"class.testing::internal::ParamIterator.65" = type { %"class.testing::internal::scoped_ptr.66" }
%"class.testing::internal::scoped_ptr.66" = type { ptr }
%"class.testing::internal::ParamIterator.67" = type { %"class.testing::internal::scoped_ptr.68" }
%"class.testing::internal::scoped_ptr.68" = type { ptr }

; Function Attrs: mustprogress nounwind uwtable
define linkonce_odr hidden void @_ZN7testing8internal10scoped_ptrINS0_22ParamIteratorInterfaceIN2cv5Size_IiEEEEEC2EPS6_(ptr noundef nonnull align 8 dereferenceable(8) %0, ptr noundef %1) unnamed_addr #4 comdat align 2 {
  %3 = alloca ptr, align 8
  %4 = alloca ptr, align 8
  store ptr %0, ptr %3, align 8
  store ptr %1, ptr %4, align 8
  %5 = load ptr, ptr %3, align 8
  %6 = getelementptr inbounds %"class.testing::internal::scoped_ptr.68", ptr %5, i32 0, i32 0
  %7 = load ptr, ptr %4, align 8
  store ptr %7, ptr %6, align 8
  ret void
}

; Function Attrs: mustprogress nounwind uwtable
define internal void @_ZN7testing8internal10scoped_ptrINS0_22ParamIteratorInterfaceIN11opencv_test12_GLOBAL__N_112_GLOBAL__N_18SrcTypesEEEEC2EPS7_(ptr noundef nonnull align 8 dereferenceable(8) %0, ptr noundef %1) unnamed_addr #4 align 2 {
  %3 = alloca ptr, align 8
  %4 = alloca ptr, align 8
  store ptr %0, ptr %3, align 8
  store ptr %1, ptr %4, align 8
  %5 = load ptr, ptr %3, align 8
  %6 = getelementptr inbounds %"class.testing::internal::scoped_ptr.66", ptr %5, i32 0, i32 0
  %7 = load ptr, ptr %4, align 8
  store ptr %7, ptr %6, align 8
  ret void
}

; Function Attrs: mustprogress nounwind uwtable
define internal void @_ZN7testing8internal10scoped_ptrINS0_22ParamIteratorInterfaceIN11opencv_test12_GLOBAL__N_112_GLOBAL__N_110GuideTypesEEEEC2EPS7_(ptr noundef nonnull align 8 dereferenceable(8) %0, ptr noundef %1) unnamed_addr #4 align 2 {
  %3 = alloca ptr, align 8
  %4 = alloca ptr, align 8
  store ptr %0, ptr %3, align 8
  store ptr %1, ptr %4, align 8
  %5 = load ptr, ptr %3, align 8
  %6 = getelementptr inbounds %"class.testing::internal::scoped_ptr.64", ptr %5, i32 0, i32 0
  %7 = load ptr, ptr %4, align 8
  store ptr %7, ptr %6, align 8
  ret void
}

; Function Attrs: mustprogress uwtable
define linkonce_odr hidden void @_ZN7testing8internal13ParamIteratorIN2cv5Size_IiEEEC2EPNS0_22ParamIteratorInterfaceIS4_EE(ptr noundef nonnull align 8 dereferenceable(8) %0, ptr noundef %1) unnamed_addr #5 comdat align 2 {
  %3 = alloca ptr, align 8
  %4 = alloca ptr, align 8
  store ptr %0, ptr %3, align 8
  store ptr %1, ptr %4, align 8
  %5 = load ptr, ptr %3, align 8
  %6 = getelementptr inbounds %"class.testing::internal::ParamIterator.67", ptr %5, i32 0, i32 0
  %7 = load ptr, ptr %4, align 8
  call void @_ZN7testing8internal10scoped_ptrINS0_22ParamIteratorInterfaceIN2cv5Size_IiEEEEEC2EPS6_(ptr noundef nonnull align 8 dereferenceable(8) %6, ptr noundef %7)
  ret void
}

; Function Attrs: mustprogress nounwind uwtable
define linkonce_odr hidden noundef ptr @_ZNK7testing8internal10linked_ptrIKNS0_23ParamGeneratorInterfaceIN2cv5Size_IiEEEEEptEv(ptr noundef nonnull align 8 dereferenceable(16) %0) #4 comdat align 2 {
  %2 = alloca ptr, align 8
  store ptr %0, ptr %2, align 8
  %3 = load ptr, ptr %2, align 8
  %4 = getelementptr inbounds %"class.testing::internal::linked_ptr.52", ptr %3, i32 0, i32 0
  %5 = load ptr, ptr %4, align 8
  ret ptr %5
}

; Function Attrs: mustprogress uwtable
define internal void @_ZN7testing8internal13ParamIteratorIN11opencv_test12_GLOBAL__N_112_GLOBAL__N_18SrcTypesEEC2EPNS0_22ParamIteratorInterfaceIS5_EE(ptr noundef nonnull align 8 dereferenceable(8) %0, ptr noundef %1) unnamed_addr #5 align 2 {
  %3 = alloca ptr, align 8
  %4 = alloca ptr, align 8
  store ptr %0, ptr %3, align 8
  store ptr %1, ptr %4, align 8
  %5 = load ptr, ptr %3, align 8
  %6 = getelementptr inbounds %"class.testing::internal::ParamIterator.65", ptr %5, i32 0, i32 0
  %7 = load ptr, ptr %4, align 8
  call void @_ZN7testing8internal10scoped_ptrINS0_22ParamIteratorInterfaceIN11opencv_test12_GLOBAL__N_112_GLOBAL__N_18SrcTypesEEEEC2EPS7_(ptr noundef nonnull align 8 dereferenceable(8) %6, ptr noundef %7)
  ret void
}

; Function Attrs: mustprogress nounwind uwtable
define internal noundef ptr @_ZNK7testing8internal10linked_ptrIKNS0_23ParamGeneratorInterfaceIN11opencv_test12_GLOBAL__N_112_GLOBAL__N_18SrcTypesEEEEptEv(ptr noundef nonnull align 8 dereferenceable(16) %0) #4 align 2 {
  %2 = alloca ptr, align 8
  store ptr %0, ptr %2, align 8
  %3 = load ptr, ptr %2, align 8
  %4 = getelementptr inbounds %"class.testing::internal::linked_ptr.32", ptr %3, i32 0, i32 0
  %5 = load ptr, ptr %4, align 8
  ret ptr %5
}

; Function Attrs: mustprogress uwtable
define internal void @_ZN7testing8internal13ParamIteratorIN11opencv_test12_GLOBAL__N_112_GLOBAL__N_110GuideTypesEEC2EPNS0_22ParamIteratorInterfaceIS5_EE(ptr noundef nonnull align 8 dereferenceable(8) %0, ptr noundef %1) unnamed_addr #5 align 2 {
  %3 = alloca ptr, align 8
  %4 = alloca ptr, align 8
  store ptr %0, ptr %3, align 8
  store ptr %1, ptr %4, align 8
  %5 = load ptr, ptr %3, align 8
  %6 = getelementptr inbounds %"class.testing::internal::ParamIterator", ptr %5, i32 0, i32 0
  %7 = load ptr, ptr %4, align 8
  call void @_ZN7testing8internal10scoped_ptrINS0_22ParamIteratorInterfaceIN11opencv_test12_GLOBAL__N_112_GLOBAL__N_110GuideTypesEEEEC2EPS7_(ptr noundef nonnull align 8 dereferenceable(8) %6, ptr noundef %7)
  ret void
}

; Function Attrs: mustprogress nounwind uwtable
define internal noundef ptr @_ZNK7testing8internal10linked_ptrIKNS0_23ParamGeneratorInterfaceIN11opencv_test12_GLOBAL__N_112_GLOBAL__N_110GuideTypesEEEEptEv(ptr noundef nonnull align 8 dereferenceable(16) %0) #4 align 2 {
  %2 = alloca ptr, align 8
  store ptr %0, ptr %2, align 8
  %3 = load ptr, ptr %2, align 8
  %4 = getelementptr inbounds %"class.testing::internal::linked_ptr.30", ptr %3, i32 0, i32 0
  %5 = load ptr, ptr %4, align 8
  ret ptr %5
}

; Function Attrs: mustprogress uwtable
define linkonce_odr hidden void @_ZNK7testing8internal14ParamGeneratorIN2cv5Size_IiEEE3endEv(ptr dead_on_unwind noalias writable sret(%"class.testing::internal::ParamIterator.67") align 8 %0, ptr noundef nonnull align 8 dereferenceable(16) %1) #5 comdat align 2 {
  %3 = alloca ptr, align 8
  %4 = alloca ptr, align 8
  store ptr %0, ptr %3, align 8
  store ptr %1, ptr %4, align 8
  %5 = load ptr, ptr %4, align 8
  %6 = getelementptr inbounds %"class.testing::internal::ParamGenerator.51", ptr %5, i32 0, i32 0
  %7 = call noundef ptr @_ZNK7testing8internal10linked_ptrIKNS0_23ParamGeneratorInterfaceIN2cv5Size_IiEEEEEptEv(ptr noundef nonnull align 8 dereferenceable(16) %6)
  %8 = load ptr, ptr %7, align 8
  %9 = getelementptr inbounds ptr, ptr %8, i64 3
  %10 = load ptr, ptr %9, align 8
  %11 = call noundef ptr %10(ptr noundef nonnull align 8 dereferenceable(8) %7)
  call void @_ZN7testing8internal13ParamIteratorIN2cv5Size_IiEEEC2EPNS0_22ParamIteratorInterfaceIS4_EE(ptr noundef nonnull align 8 dereferenceable(8) %0, ptr noundef %11)
  ret void
}

; Function Attrs: mustprogress uwtable
define internal void @_ZNK7testing8internal14ParamGeneratorIN11opencv_test12_GLOBAL__N_112_GLOBAL__N_18SrcTypesEE3endEv(ptr dead_on_unwind noalias writable sret(%"class.testing::internal::ParamIterator.65") align 8 %0, ptr noundef nonnull align 8 dereferenceable(16) %1) #5 align 2 {
  %3 = alloca ptr, align 8
  %4 = alloca ptr, align 8
  store ptr %0, ptr %3, align 8
  store ptr %1, ptr %4, align 8
  %5 = load ptr, ptr %4, align 8
  %6 = getelementptr inbounds %"class.testing::internal::ParamGenerator.31", ptr %5, i32 0, i32 0
  %7 = call noundef ptr @_ZNK7testing8internal10linked_ptrIKNS0_23ParamGeneratorInterfaceIN11opencv_test12_GLOBAL__N_112_GLOBAL__N_18SrcTypesEEEEptEv(ptr noundef nonnull align 8 dereferenceable(16) %6)
  %8 = load ptr, ptr %7, align 8
  %9 = getelementptr inbounds ptr, ptr %8, i64 3
  %10 = load ptr, ptr %9, align 8
  %11 = call noundef ptr %10(ptr noundef nonnull align 8 dereferenceable(8) %7)
  call void @_ZN7testing8internal13ParamIteratorIN11opencv_test12_GLOBAL__N_112_GLOBAL__N_18SrcTypesEEC2EPNS0_22ParamIteratorInterfaceIS5_EE(ptr noundef nonnull align 8 dereferenceable(8) %0, ptr noundef %11)
  ret void
}

; Function Attrs: mustprogress uwtable
define internal void @_ZNK7testing8internal14ParamGeneratorIN11opencv_test12_GLOBAL__N_112_GLOBAL__N_110GuideTypesEE3endEv(ptr dead_on_unwind noalias writable sret(%"class.testing::internal::ParamIterator") align 8 %0, ptr noundef nonnull align 8 dereferenceable(16) %1) #5 align 2 {
  %3 = alloca ptr, align 8
  %4 = alloca ptr, align 8
  store ptr %0, ptr %3, align 8
  store ptr %1, ptr %4, align 8
  %5 = load ptr, ptr %4, align 8
  %6 = getelementptr inbounds %"class.testing::internal::ParamGenerator.29", ptr %5, i32 0, i32 0
  %7 = call noundef ptr @_ZNK7testing8internal10linked_ptrIKNS0_23ParamGeneratorInterfaceIN11opencv_test12_GLOBAL__N_112_GLOBAL__N_110GuideTypesEEEEptEv(ptr noundef nonnull align 8 dereferenceable(16) %6)
  %8 = load ptr, ptr %7, align 8
  %9 = getelementptr inbounds ptr, ptr %8, i64 3
  %10 = load ptr, ptr %9, align 8
  %11 = call noundef ptr %10(ptr noundef nonnull align 8 dereferenceable(8) %7)
  call void @_ZN7testing8internal13ParamIteratorIN11opencv_test12_GLOBAL__N_112_GLOBAL__N_110GuideTypesEEC2EPNS0_22ParamIteratorInterfaceIS5_EE(ptr noundef nonnull align 8 dereferenceable(8) %0, ptr noundef %11)
  ret void
}

; Function Attrs: mustprogress uwtable
define internal noundef ptr @_ZNK7testing8internal26CartesianProductGenerator3IN11opencv_test12_GLOBAL__N_112_GLOBAL__N_110GuideTypesENS4_8SrcTypesEN2cv5Size_IiEEE3EndEv(ptr noundef nonnull align 8 dereferenceable(56) %0) unnamed_addr #5 align 2 personality ptr @__gxx_personality_v0 {
  %2 = alloca ptr, align 8
  %3 = alloca %"class.testing::internal::ParamIterator", align 8
  %4 = alloca ptr, align 8
  %5 = alloca i32, align 4
  %6 = alloca %"class.testing::internal::ParamIterator.65", align 8
  %7 = alloca %"class.testing::internal::ParamIterator.67", align 8
  %8 = alloca i1, align 1
  store ptr %0, ptr %2, align 8
  %9 = load ptr, ptr %2, align 8
  %10 = call noalias noundef nonnull ptr @_Znwm(i64 noundef 104) #20
  store i1 true, ptr %8, align 1
  %11 = getelementptr inbounds %"class.testing::internal::CartesianProductGenerator3", ptr %9, i32 0, i32 1
  %12 = getelementptr inbounds %"class.testing::internal::CartesianProductGenerator3", ptr %9, i32 0, i32 1
  invoke void @_ZNK7testing8internal14ParamGeneratorIN11opencv_test12_GLOBAL__N_112_GLOBAL__N_110GuideTypesEE3endEv(ptr dead_on_unwind writable sret(%"class.testing::internal::ParamIterator") align 8 %3, ptr noundef nonnull align 8 dereferenceable(16) %12)
          to label %13 unwind label %21

13:                                               ; preds = %1
  %14 = getelementptr inbounds %"class.testing::internal::CartesianProductGenerator3", ptr %9, i32 0, i32 2
  %15 = getelementptr inbounds %"class.testing::internal::CartesianProductGenerator3", ptr %9, i32 0, i32 2
  invoke void @_ZNK7testing8internal14ParamGeneratorIN11opencv_test12_GLOBAL__N_112_GLOBAL__N_18SrcTypesEE3endEv(ptr dead_on_unwind writable sret(%"class.testing::internal::ParamIterator.65") align 8 %6, ptr noundef nonnull align 8 dereferenceable(16) %15)
          to label %16 unwind label %25

16:                                               ; preds = %13
  %17 = getelementptr inbounds %"class.testing::internal::CartesianProductGenerator3", ptr %9, i32 0, i32 3
  %18 = getelementptr inbounds %"class.testing::internal::CartesianProductGenerator3", ptr %9, i32 0, i32 3
  invoke void @_ZNK7testing8internal14ParamGeneratorIN2cv5Size_IiEEE3endEv(ptr dead_on_unwind writable sret(%"class.testing::internal::ParamIterator.67") align 8 %7, ptr noundef nonnull align 8 dereferenceable(16) %18)
          to label %19 unwind label %29

19:                                               ; preds = %16
  invoke void @_ZN7testing8internal26CartesianProductGenerator3IN11opencv_test12_GLOBAL__N_112_GLOBAL__N_110GuideTypesENS4_8SrcTypesEN2cv5Size_IiEEE8IteratorC2EPKNS0_23ParamGeneratorInterfaceISt5tupleIJS5_S6_S9_EEEERKNS0_14ParamGeneratorIS5_EERKNS0_13ParamIteratorIS5_EERKNSI_IS6_EERKNSM_IS6_EERKNSI_IS9_EERKNSM_IS9_EE(ptr noundef nonnull align 8 dereferenceable(104) %10, ptr noundef %9, ptr noundef nonnull align 8 dereferenceable(16) %11, ptr noundef nonnull align 8 dereferenceable(8) %3, ptr noundef nonnull align 8 dereferenceable(16) %14, ptr noundef nonnull align 8 dereferenceable(8) %6, ptr noundef nonnull align 8 dereferenceable(16) %17, ptr noundef nonnull align 8 dereferenceable(8) %7)
          to label %20 unwind label %33

20:                                               ; preds = %19
  store i1 false, ptr %8, align 1
  call void @_ZN7testing8internal13ParamIteratorIN2cv5Size_IiEEED2Ev(ptr noundef nonnull align 8 dereferenceable(8) %7) #3
  call void @_ZN7testing8internal13ParamIteratorIN11opencv_test12_GLOBAL__N_112_GLOBAL__N_18SrcTypesEED2Ev(ptr noundef nonnull align 8 dereferenceable(8) %6) #3
  call void @_ZN7testing8internal13ParamIteratorIN11opencv_test12_GLOBAL__N_112_GLOBAL__N_110GuideTypesEED2Ev(ptr noundef nonnull align 8 dereferenceable(8) %3) #3
  ret ptr %10

21:                                               ; preds = %1
  %22 = landingpad { ptr, i32 }
          cleanup
  %23 = extractvalue { ptr, i32 } %22, 0
  store ptr %23, ptr %4, align 8
  %24 = extractvalue { ptr, i32 } %22, 1
  store i32 %24, ptr %5, align 4
  br label %39

25:                                               ; preds = %13
  %26 = landingpad { ptr, i32 }
          cleanup
  %27 = extractvalue { ptr, i32 } %26, 0
  store ptr %27, ptr %4, align 8
  %28 = extractvalue { ptr, i32 } %26, 1
  store i32 %28, ptr %5, align 4
  br label %38

29:                                               ; preds = %16
  %30 = landingpad { ptr, i32 }
          cleanup
  %31 = extractvalue { ptr, i32 } %30, 0
  store ptr %31, ptr %4, align 8
  %32 = extractvalue { ptr, i32 } %30, 1
  store i32 %32, ptr %5, align 4
  br label %37

33:                                               ; preds = %19
  %34 = landingpad { ptr, i32 }
          cleanup
  %35 = extractvalue { ptr, i32 } %34, 0
  store ptr %35, ptr %4, align 8
  %36 = extractvalue { ptr, i32 } %34, 1
  store i32 %36, ptr %5, align 4
  call void @_ZN7testing8internal13ParamIteratorIN2cv5Size_IiEEED2Ev(ptr noundef nonnull align 8 dereferenceable(8) %7) #3
  br label %37

37:                                               ; preds = %33, %29
  call void @_ZN7testing8internal13ParamIteratorIN11opencv_test12_GLOBAL__N_112_GLOBAL__N_18SrcTypesEED2Ev(ptr noundef nonnull align 8 dereferenceable(8) %6) #3
  br label %38

38:                                               ; preds = %37, %25
  call void @_ZN7testing8internal13ParamIteratorIN11opencv_test12_GLOBAL__N_112_GLOBAL__N_110GuideTypesEED2Ev(ptr noundef nonnull align 8 dereferenceable(8) %3) #3
  br label %39

39:                                               ; preds = %38, %21
  %40 = load i1, ptr %8, align 1
  br i1 %40, label %41, label %42

41:                                               ; preds = %39
  call void @_ZdlPv(ptr noundef %10) #21
  br label %42

42:                                               ; preds = %41, %39
  br label %43

43:                                               ; preds = %42
  %44 = load ptr, ptr %4, align 8
  %45 = load i32, ptr %5, align 4
  %46 = insertvalue { ptr, i32 } poison, ptr %44, 0
  %47 = insertvalue { ptr, i32 } %46, i32 %45, 1
  resume { ptr, i32 } %47
}